target datalayout = "e-m:e-p270:32:32-p271:32:32-p272:64:64-i64:64-i128:128-f80:128-n8:16:32:64-S128"
target triple = "x86_64-pc-linux-gnu"

%struct.procfs_entry_s = type { ptr, ptr, i8 }
%struct.procfs_operations = type { ptr, ptr, ptr, ptr, ptr, ptr, ptr, ptr, ptr, ptr, ptr }
%struct.file = type { i32, i32, ptr, ptr }
%struct.procfs_file_s = type { ptr }

; Function Attrs: nounwind uwtable
define internal i32 @procfs_open(ptr noundef %0, ptr noundef %1, i32 noundef %2, i32 noundef %3) #0 {
  %5 = alloca ptr, align 8
  %6 = alloca ptr, align 8
  %7 = alloca i32, align 4
  %8 = alloca i32, align 4
  %9 = alloca i32, align 4
  %10 = alloca i32, align 4
  store ptr %0, ptr %5, align 8
  store ptr %1, ptr %6, align 8
  store i32 %2, ptr %7, align 4
  store i32 %3, ptr %8, align 4
  store i32 -2, ptr %10, align 4
  br label %11

11:                                               ; preds = %4
  br label %12

12:                                               ; preds = %11
  store i32 0, ptr %9, align 4
  br label %13

13:                                               ; preds = %50, %12
  %14 = load i32, ptr %9, align 4
  %15 = icmp slt i32 %14, 13
  br i1 %15, label %16, label %53

16:                                               ; preds = %13
  %17 = load i32, ptr %9, align 4
  %18 = sext i32 %17 to i64
  %19 = getelementptr inbounds [13 x %struct.procfs_entry_s], ptr @g_procfs_entries, i64 0, i64 %18
  %20 = getelementptr inbounds %struct.procfs_entry_s, ptr %19, i32 0, i32 0
  %21 = load ptr, ptr %20, align 8
  %22 = load ptr, ptr %6, align 8
  %23 = call i32 @fnmatch(ptr noundef %21, ptr noundef %22, i32 noundef 0)
  %24 = icmp eq i32 %23, 0
  br i1 %24, label %25, label %49

25:                                               ; preds = %16
  %26 = load i32, ptr %9, align 4
  %27 = sext i32 %26 to i64
  %28 = getelementptr inbounds [13 x %struct.procfs_entry_s], ptr @g_procfs_entries, i64 0, i64 %27
  %29 = getelementptr inbounds %struct.procfs_entry_s, ptr %28, i32 0, i32 1
  %30 = load ptr, ptr %29, align 8
  %31 = getelementptr inbounds %struct.procfs_operations, ptr %30, i32 0, i32 0
  %32 = load ptr, ptr %31, align 8
  %33 = load ptr, ptr %5, align 8
  %34 = load ptr, ptr %6, align 8
  %35 = load i32, ptr %7, align 4
  %36 = load i32, ptr %8, align 4
  %37 = call i32 %32(ptr noundef %33, ptr noundef %34, i32 noundef %35, i32 noundef %36)
  store i32 %37, ptr %10, align 4
  %38 = load i32, ptr %10, align 4
  %39 = icmp eq i32 %38, 0
  br i1 %39, label %40, label %48

40:                                               ; preds = %25
  %41 = load i32, ptr %9, align 4
  %42 = sext i32 %41 to i64
  %43 = getelementptr inbounds [13 x %struct.procfs_entry_s], ptr @g_procfs_entries, i64 0, i64 %42
  %44 = load ptr, ptr %5, align 8
  %45 = getelementptr inbounds %struct.file, ptr %44, i32 0, i32 3
  %46 = load ptr, ptr %45, align 8
  %47 = getelementptr inbounds %struct.procfs_file_s, ptr %46, i32 0, i32 0
  store ptr %43, ptr %47, align 8
  br label %53

48:                                               ; preds = %25
  br label %49

49:                                               ; preds = %48, %16
  br label %50

50:                                               ; preds = %49
  %51 = load i32, ptr %9, align 4
  %52 = add nsw i32 %51, 1
  store i32 %52, ptr %9, align 4
  br label %13, !llvm.loop !6

53:                                               ; preds = %40, %13
  %54 = load i32, ptr %10, align 4
  ret i32 %54
}