; Function Attrs: nounwind uwtable
define internal i32 @procfs_open(ptr noundef %0, ptr noundef %1, i32 noundef %2, i32 noundef %3) #0 {
  br label %5

5:                                                ; preds = %4, %19
  %indvars.iv = phi i64 [ 0, %4 ], [ %indvars.iv.next, %19 ]
  %.017 = phi i32 [ -2, %4 ], [ %.2, %19 ]
  %6 = getelementptr inbounds nuw [13 x %struct.procfs_entry_s], ptr @g_procfs_entries, i64 0, i64 %indvars.iv
  %7 = load ptr, ptr %6, align 8
  %8 = tail call i32 @fnmatch(ptr noundef %7, ptr noundef %1, i32 noundef 0) #12
  %9 = icmp eq i32 %8, 0
  br i1 %9, label %10, label %19

10:                                               ; preds = %5
  %11 = getelementptr inbounds nuw i8, ptr %6, i64 8
  %12 = load ptr, ptr %11, align 8
  %13 = load ptr, ptr %12, align 8
  %14 = tail call i32 %13(ptr noundef %0, ptr noundef %1, i32 noundef %2, i32 noundef %3) #12
  %15 = icmp eq i32 %14, 0
  br i1 %15, label %16, label %19

16:                                               ; preds = %10
  %17 = getelementptr inbounds nuw i8, ptr %0, i64 16
  %18 = load ptr, ptr %17, align 8
  store ptr %6, ptr %18, align 8
  br label %.loopexit

19:                                               ; preds = %5, %10
  %.2 = phi i32 [ %14, %10 ], [ %.017, %5 ]
  %indvars.iv.next = add nuw nsw i64 %indvars.iv, 1
  %exitcond.not = icmp eq i64 %indvars.iv.next, 13
  br i1 %exitcond.not, label %.loopexit, label %5, !llvm.loop !6

.loopexit:                                        ; preds = %19, %16
  %.1 = phi i32 [ 0, %16 ], [ %.2, %19 ]
  ret i32 %.1
}